target datalayout = "e-m:e-p270:32:32-p271:32:32-p272:64:64-i64:64-i128:128-f80:128-n8:16:32:64-S128"
target triple = "x86_64-unknown-linux-gnu"

%"class.arrow::compute::RowTableEncoder" = type { %"struct.arrow::compute::RowTableMetadata", %"class.std::vector.5", %"class.std::vector.5", %"class.std::vector.0" }
%"struct.arrow::compute::RowTableMetadata" = type { i8, i32, i32, i32, i32, i32, %"class.std::vector", %"class.std::vector.0", %"class.std::vector.0", %"class.std::vector.0" }
%"class.std::vector" = type { %"struct.std::_Vector_base" }
%"struct.std::_Vector_base" = type { %"struct.std::_Vector_base<arrow::compute::KeyColumnMetadata, std::allocator<arrow::compute::KeyColumnMetadata>>::_Vector_impl" }
%"struct.std::_Vector_base<arrow::compute::KeyColumnMetadata, std::allocator<arrow::compute::KeyColumnMetadata>>::_Vector_impl" = type { %"struct.std::_Vector_base<arrow::compute::KeyColumnMetadata, std::allocator<arrow::compute::KeyColumnMetadata>>::_Vector_impl_data" }
%"struct.std::_Vector_base<arrow::compute::KeyColumnMetadata, std::allocator<arrow::compute::KeyColumnMetadata>>::_Vector_impl_data" = type { ptr, ptr, ptr }
%"class.std::vector.5" = type { %"struct.std::_Vector_base.6" }
%"struct.std::_Vector_base.6" = type { %"struct.std::_Vector_base<arrow::compute::KeyColumnArray, std::allocator<arrow::compute::KeyColumnArray>>::_Vector_impl" }
%"struct.std::_Vector_base<arrow::compute::KeyColumnArray, std::allocator<arrow::compute::KeyColumnArray>>::_Vector_impl" = type { %"struct.std::_Vector_base<arrow::compute::KeyColumnArray, std::allocator<arrow::compute::KeyColumnArray>>::_Vector_impl_data" }
%"struct.std::_Vector_base<arrow::compute::KeyColumnArray, std::allocator<arrow::compute::KeyColumnArray>>::_Vector_impl_data" = type { ptr, ptr, ptr }
%"class.std::vector.0" = type { %"struct.std::_Vector_base.1" }
%"struct.std::_Vector_base.1" = type { %"struct.std::_Vector_base<unsigned int, std::allocator<unsigned int>>::_Vector_impl" }
%"struct.std::_Vector_base<unsigned int, std::allocator<unsigned int>>::_Vector_impl" = type { %"struct.std::_Vector_base<unsigned int, std::allocator<unsigned int>>::_Vector_impl_data" }
%"struct.std::_Vector_base<unsigned int, std::allocator<unsigned int>>::_Vector_impl_data" = type { ptr, ptr, ptr }
%"class.arrow::compute::KeyColumnArray" = type { [3 x ptr], [3 x ptr], %"struct.arrow::compute::KeyColumnMetadata", i64, [2 x i32] }
%"struct.arrow::compute::KeyColumnMetadata" = type { i8, i8, i32 }

; Function Attrs: mustprogress nounwind uwtable
define linkonce_odr noundef ptr @_ZNK5arrow7compute14KeyColumnArray4dataEi(ptr noundef nonnull align 8 dereferenceable(72) %this, i32 noundef %i) #2 comdat align 2 {
entry:
  %this.addr = alloca ptr, align 8
  %i.addr = alloca i32, align 4
  store ptr %this, ptr %this.addr, align 8
  store i32 %i, ptr %i.addr, align 4
  %this1 = load ptr, ptr %this.addr, align 8
  br label %while.cond

while.cond:                                       ; preds = %land.end, %entry
  br i1 false, label %while.body, label %while.end

while.body:                                       ; preds = %while.cond
  %0 = load i32, ptr %i.addr, align 4
  %cmp = icmp sge i32 %0, 0
  br i1 %cmp, label %land.rhs, label %land.end

land.rhs:                                         ; preds = %while.body
  br label %land.end

land.end:                                         ; preds = %land.rhs, %while.body
  br label %while.cond, !llvm.loop !284

while.end:                                        ; preds = %while.cond
  br label %while.cond3

while.cond3:                                      ; preds = %while.body4, %while.end
  br i1 false, label %while.body4, label %while.end5

while.body4:                                      ; preds = %while.cond3
  br label %while.cond3, !llvm.loop !285

while.end5:                                       ; preds = %while.cond3
  %buffers_ = getelementptr inbounds %"class.arrow::compute::KeyColumnArray", ptr %this1, i32 0, i32 0
  %1 = load i32, ptr %i.addr, align 4
  %idxprom = sext i32 %1 to i64
  %arrayidx = getelementptr inbounds [3 x ptr], ptr %buffers_, i64 0, i64 %idxprom
  %2 = load ptr, ptr %arrayidx, align 8
  ret ptr %2
}

; Function Attrs: mustprogress uwtable
define linkonce_odr noundef ptr @_ZNK5arrow7compute14KeyColumnArray7offsetsEv(ptr noundef nonnull align 8 dereferenceable(72) %this) #0 comdat align 2 {
entry:
  %this.addr = alloca ptr, align 8
  store ptr %this, ptr %this.addr, align 8
  %this1 = load ptr, ptr %this.addr, align 8
  br label %while.cond

while.cond:                                       ; preds = %while.body, %entry
  br i1 false, label %while.body, label %while.end

while.body:                                       ; preds = %while.cond
  br label %while.cond, !llvm.loop !10

while.end:                                        ; preds = %while.cond
  br label %while.cond2

while.cond2:                                      ; preds = %while.body3, %while.end
  br i1 false, label %while.body3, label %while.end4

while.body3:                                      ; preds = %while.cond2
  br label %while.cond2, !llvm.loop !11

while.end4:                                       ; preds = %while.cond2
  br label %while.cond5

while.cond5:                                      ; preds = %while.body6, %while.end4
  br i1 false, label %while.body6, label %while.end8

while.body6:                                      ; preds = %while.cond5
  br label %while.cond5, !llvm.loop !12

while.end8:                                       ; preds = %while.cond5
  br label %while.cond9

while.cond9:                                      ; preds = %while.body10, %while.end8
  br i1 false, label %while.body10, label %while.end11

while.body10:                                     ; preds = %while.cond9
  br label %while.cond9, !llvm.loop !13

while.end11:                                      ; preds = %while.cond9
  br label %while.cond12

while.cond12:                                     ; preds = %while.body13, %while.end11
  br i1 false, label %while.body13, label %while.end15

while.body13:                                     ; preds = %while.cond12
  br label %while.cond12, !llvm.loop !14

while.end15:                                      ; preds = %while.cond12
  %call = call noundef ptr @_ZNK5arrow7compute14KeyColumnArray4dataEi(ptr noundef nonnull align 8 dereferenceable(72) %this1, i32 noundef 1)
  ret ptr %call
}

; Function Attrs: mustprogress nounwind uwtable
define linkonce_odr noundef nonnull align 4 dereferenceable(8) ptr @_ZNK5arrow7compute14KeyColumnArray8metadataEv(ptr noundef nonnull align 8 dereferenceable(72) %this) #2 comdat align 2 {
entry:
  %this.addr = alloca ptr, align 8
  store ptr %this, ptr %this.addr, align 8
  %this1 = load ptr, ptr %this.addr, align 8
  %metadata_ = getelementptr inbounds %"class.arrow::compute::KeyColumnArray", ptr %this1, i32 0, i32 2
  ret ptr %metadata_
}

; Function Attrs: mustprogress nounwind uwtable
define linkonce_odr noundef nonnull align 8 dereferenceable(72) ptr @_ZNSt6vectorIN5arrow7compute14KeyColumnArrayESaIS2_EEixEm(ptr noundef nonnull align 8 dereferenceable(24) %this, i64 noundef %__n) #2 comdat align 2 {
entry:
  %this.addr = alloca ptr, align 8
  %__n.addr = alloca i64, align 8
  store ptr %this, ptr %this.addr, align 8
  store i64 %__n, ptr %__n.addr, align 8
  %this1 = load ptr, ptr %this.addr, align 8
  %_M_impl = getelementptr inbounds %"struct.std::_Vector_base.6", ptr %this1, i32 0, i32 0
  %_M_start = getelementptr inbounds %"struct.std::_Vector_base<arrow::compute::KeyColumnArray, std::allocator<arrow::compute::KeyColumnArray>>::_Vector_impl_data", ptr %_M_impl, i32 0, i32 0
  %0 = load ptr, ptr %_M_start, align 8
  %1 = load i64, ptr %__n.addr, align 8
  %add.ptr = getelementptr inbounds %"class.arrow::compute::KeyColumnArray", ptr %0, i64 %1
  ret ptr %add.ptr
}

; Function Attrs: mustprogress nounwind uwtable
define linkonce_odr noundef nonnull align 8 dereferenceable(72) ptr @_ZNKSt6vectorIN5arrow7compute14KeyColumnArrayESaIS2_EEixEm(ptr noundef nonnull align 8 dereferenceable(24) %this, i64 noundef %__n) #2 comdat align 2 {
entry:
  %this.addr = alloca ptr, align 8
  %__n.addr = alloca i64, align 8
  store ptr %this, ptr %this.addr, align 8
  store i64 %__n, ptr %__n.addr, align 8
  %this1 = load ptr, ptr %this.addr, align 8
  %_M_impl = getelementptr inbounds %"struct.std::_Vector_base.6", ptr %this1, i32 0, i32 0
  %_M_start = getelementptr inbounds %"struct.std::_Vector_base<arrow::compute::KeyColumnArray, std::allocator<arrow::compute::KeyColumnArray>>::_Vector_impl_data", ptr %_M_impl, i32 0, i32 0
  %0 = load ptr, ptr %_M_start, align 8
  %1 = load i64, ptr %__n.addr, align 8
  %add.ptr = getelementptr inbounds %"class.arrow::compute::KeyColumnArray", ptr %0, i64 %1
  ret ptr %add.ptr
}

; Function Attrs: mustprogress nounwind uwtable
define linkonce_odr noundef nonnull align 4 dereferenceable(4) ptr @_ZNSt6vectorIjSaIjEEixEm(ptr noundef nonnull align 8 dereferenceable(24) %this, i64 noundef %__n) #2 comdat align 2 {
entry:
  %this.addr = alloca ptr, align 8
  %__n.addr = alloca i64, align 8
  store ptr %this, ptr %this.addr, align 8
  store i64 %__n, ptr %__n.addr, align 8
  %this1 = load ptr, ptr %this.addr, align 8
  %_M_impl = getelementptr inbounds %"struct.std::_Vector_base.1", ptr %this1, i32 0, i32 0
  %_M_start = getelementptr inbounds %"struct.std::_Vector_base<unsigned int, std::allocator<unsigned int>>::_Vector_impl_data", ptr %_M_impl, i32 0, i32 0
  %0 = load ptr, ptr %_M_start, align 8
  %1 = load i64, ptr %__n.addr, align 8
  %add.ptr = getelementptr inbounds i32, ptr %0, i64 %1
  ret ptr %add.ptr
}

; Function Attrs: mustprogress nounwind uwtable
define linkonce_odr noundef i64 @_ZNKSt6vectorIN5arrow7compute14KeyColumnArrayESaIS2_EE4sizeEv(ptr noundef nonnull align 8 dereferenceable(24) %this) #2 comdat align 2 {
entry:
  %this.addr = alloca ptr, align 8
  store ptr %this, ptr %this.addr, align 8
  %this1 = load ptr, ptr %this.addr, align 8
  %_M_impl = getelementptr inbounds %"struct.std::_Vector_base.6", ptr %this1, i32 0, i32 0
  %_M_finish = getelementptr inbounds %"struct.std::_Vector_base<arrow::compute::KeyColumnArray, std::allocator<arrow::compute::KeyColumnArray>>::_Vector_impl_data", ptr %_M_impl, i32 0, i32 1
  %0 = load ptr, ptr %_M_finish, align 8
  %_M_impl2 = getelementptr inbounds %"struct.std::_Vector_base.6", ptr %this1, i32 0, i32 0
  %_M_start = getelementptr inbounds %"struct.std::_Vector_base<arrow::compute::KeyColumnArray, std::allocator<arrow::compute::KeyColumnArray>>::_Vector_impl_data", ptr %_M_impl2, i32 0, i32 0
  %1 = load ptr, ptr %_M_start, align 8
  %sub.ptr.lhs.cast = ptrtoint ptr %0 to i64
  %sub.ptr.rhs.cast = ptrtoint ptr %1 to i64
  %sub.ptr.sub = sub i64 %sub.ptr.lhs.cast, %sub.ptr.rhs.cast
  %sub.ptr.div = sdiv exact i64 %sub.ptr.sub, 72
  ret i64 %sub.ptr.div
}

; Function Attrs: mustprogress uwtable
define void @_ZN5arrow7compute15RowTableEncoder22PrepareKeyColumnArraysEllRKSt6vectorINS0_14KeyColumnArrayESaIS3_EE(ptr noundef nonnull align 8 dereferenceable(192) %this, i64 noundef %start_row, i64 noundef %num_rows, ptr noundef nonnull align 8 dereferenceable(24) %cols_in) #0 align 2 {
entry:
  %this.addr = alloca ptr, align 8
  %start_row.addr = alloca i64, align 8
  %num_rows.addr = alloca i64, align 8
  %cols_in.addr = alloca ptr, align 8
  %num_cols = alloca i32, align 4
  %num_varbinary_visited = alloca i32, align 4
  %i = alloca i32, align 4
  %col = alloca ptr, align 8
  %col_window = alloca %"class.arrow::compute::KeyColumnArray", align 8
  store ptr %this, ptr %this.addr, align 8
  store i64 %start_row, ptr %start_row.addr, align 8
  store i64 %num_rows, ptr %num_rows.addr, align 8
  store ptr %cols_in, ptr %cols_in.addr, align 8
  %this1 = load ptr, ptr %this.addr, align 8
  %0 = load ptr, ptr %cols_in.addr, align 8
  %call = call noundef i64 @_ZNKSt6vectorIN5arrow7compute14KeyColumnArrayESaIS2_EE4sizeEv(ptr noundef nonnull align 8 dereferenceable(24) %0) #11
  %conv = trunc i64 %call to i32
  store i32 %conv, ptr %num_cols, align 4
  br label %while.cond

while.cond:                                       ; preds = %while.body, %entry
  br i1 false, label %while.body, label %while.end

while.body:                                       ; preds = %while.cond
  %batch_all_cols_ = getelementptr inbounds %"class.arrow::compute::RowTableEncoder", ptr %this1, i32 0, i32 1
  %call2 = call noundef i64 @_ZNKSt6vectorIN5arrow7compute14KeyColumnArrayESaIS2_EE4sizeEv(ptr noundef nonnull align 8 dereferenceable(24) %batch_all_cols_) #11
  br label %while.cond, !llvm.loop !4

while.end:                                        ; preds = %while.cond
  br label %while.cond4

while.cond4:                                      ; preds = %while.body5, %while.end
  br i1 false, label %while.body5, label %while.end6

while.body5:                                      ; preds = %while.cond4
  br label %while.cond4, !llvm.loop !6

while.end6:                                       ; preds = %while.cond4
  store i32 0, ptr %num_varbinary_visited, align 4
  store i32 0, ptr %i, align 4
  br label %for.cond

for.cond:                                         ; preds = %for.inc, %while.end6
  %1 = load i32, ptr %i, align 4
  %2 = load i32, ptr %num_cols, align 4
  %cmp7 = icmp ult i32 %1, %2
  br i1 %cmp7, label %for.body, label %for.end

for.body:                                         ; preds = %for.cond
  %3 = load ptr, ptr %cols_in.addr, align 8
  %row_metadata_ = getelementptr inbounds %"class.arrow::compute::RowTableEncoder", ptr %this1, i32 0, i32 0
  %column_order = getelementptr inbounds %"struct.arrow::compute::RowTableMetadata", ptr %row_metadata_, i32 0, i32 7
  %4 = load i32, ptr %i, align 4
  %conv8 = zext i32 %4 to i64
  %call9 = call noundef nonnull align 4 dereferenceable(4) ptr @_ZNSt6vectorIjSaIjEEixEm(ptr noundef nonnull align 8 dereferenceable(24) %column_order, i64 noundef %conv8) #11
  %5 = load i32, ptr %call9, align 4
  %conv10 = zext i32 %5 to i64
  %call11 = call noundef nonnull align 8 dereferenceable(72) ptr @_ZNKSt6vectorIN5arrow7compute14KeyColumnArrayESaIS2_EEixEm(ptr noundef nonnull align 8 dereferenceable(24) %3, i64 noundef %conv10) #11
  store ptr %call11, ptr %col, align 8
  %6 = load ptr, ptr %col, align 8
  %7 = load i64, ptr %start_row.addr, align 8
  %8 = load i64, ptr %num_rows.addr, align 8
  call void @_ZNK5arrow7compute14KeyColumnArray5SliceEll(ptr sret(%"class.arrow::compute::KeyColumnArray") align 8 %col_window, ptr noundef nonnull align 8 dereferenceable(72) %6, i64 noundef %7, i64 noundef %8)
  %batch_all_cols_12 = getelementptr inbounds %"class.arrow::compute::RowTableEncoder", ptr %this1, i32 0, i32 1
  %9 = load i32, ptr %i, align 4
  %conv13 = zext i32 %9 to i64
  %call14 = call noundef nonnull align 8 dereferenceable(72) ptr @_ZNSt6vectorIN5arrow7compute14KeyColumnArrayESaIS2_EEixEm(ptr noundef nonnull align 8 dereferenceable(24) %batch_all_cols_12, i64 noundef %conv13) #11
  call void @llvm.memcpy.p0.p0.i64(ptr align 8 %call14, ptr align 8 %col_window, i64 72, i1 false)
  %10 = load ptr, ptr %col, align 8
  %call15 = call noundef nonnull align 4 dereferenceable(8) ptr @_ZNK5arrow7compute14KeyColumnArray8metadataEv(ptr noundef nonnull align 8 dereferenceable(72) %10)
  %is_fixed_length = getelementptr inbounds %"struct.arrow::compute::KeyColumnMetadata", ptr %call15, i32 0, i32 0
  %11 = load i8, ptr %is_fixed_length, align 4
  %tobool = trunc i8 %11 to i1
  br i1 %tobool, label %if.end37, label %if.then

if.then:                                          ; preds = %for.body
  br label %while.cond16

while.cond16:                                     ; preds = %while.body17, %if.then
  br i1 false, label %while.body17, label %while.end21

while.body17:                                     ; preds = %while.cond16
  %batch_varbinary_cols_ = getelementptr inbounds %"class.arrow::compute::RowTableEncoder", ptr %this1, i32 0, i32 2
  %call19 = call noundef i64 @_ZNKSt6vectorIN5arrow7compute14KeyColumnArrayESaIS2_EE4sizeEv(ptr noundef nonnull align 8 dereferenceable(24) %batch_varbinary_cols_) #11
  br label %while.cond16, !llvm.loop !7

while.end21:                                      ; preds = %while.cond16
  br label %while.cond22

while.cond22:                                     ; preds = %while.body23, %while.end21
  br i1 false, label %while.body23, label %while.end25

while.body23:                                     ; preds = %while.cond22
  br label %while.cond22, !llvm.loop !8

while.end25:                                      ; preds = %while.cond22
  %12 = load i64, ptr %start_row.addr, align 8
  %cmp26 = icmp eq i64 %12, 0
  br i1 %cmp26, label %if.then27, label %if.else

if.then27:                                        ; preds = %while.end25
  %batch_varbinary_cols_base_offsets_ = getelementptr inbounds %"class.arrow::compute::RowTableEncoder", ptr %this1, i32 0, i32 3
  %13 = load i32, ptr %num_varbinary_visited, align 4
  %conv28 = zext i32 %13 to i64
  %call29 = call noundef nonnull align 4 dereferenceable(4) ptr @_ZNSt6vectorIjSaIjEEixEm(ptr noundef nonnull align 8 dereferenceable(24) %batch_varbinary_cols_base_offsets_, i64 noundef %conv28) #11
  store i32 0, ptr %call29, align 4
  br label %if.end

if.else:                                          ; preds = %while.end25
  %14 = load ptr, ptr %col, align 8
  %call30 = call noundef ptr @_ZNK5arrow7compute14KeyColumnArray7offsetsEv(ptr noundef nonnull align 8 dereferenceable(72) %14)
  %15 = load i64, ptr %start_row.addr, align 8
  %arrayidx = getelementptr inbounds i32, ptr %call30, i64 %15
  %16 = load i32, ptr %arrayidx, align 4
  %batch_varbinary_cols_base_offsets_31 = getelementptr inbounds %"class.arrow::compute::RowTableEncoder", ptr %this1, i32 0, i32 3
  %17 = load i32, ptr %num_varbinary_visited, align 4
  %conv32 = zext i32 %17 to i64
  %call33 = call noundef nonnull align 4 dereferenceable(4) ptr @_ZNSt6vectorIjSaIjEEixEm(ptr noundef nonnull align 8 dereferenceable(24) %batch_varbinary_cols_base_offsets_31, i64 noundef %conv32) #11
  store i32 %16, ptr %call33, align 4
  br label %if.end

if.end:                                           ; preds = %if.else, %if.then27
  %batch_varbinary_cols_34 = getelementptr inbounds %"class.arrow::compute::RowTableEncoder", ptr %this1, i32 0, i32 2
  %18 = load i32, ptr %num_varbinary_visited, align 4
  %inc = add i32 %18, 1
  store i32 %inc, ptr %num_varbinary_visited, align 4
  %conv35 = zext i32 %18 to i64
  %call36 = call noundef nonnull align 8 dereferenceable(72) ptr @_ZNSt6vectorIN5arrow7compute14KeyColumnArrayESaIS2_EEixEm(ptr noundef nonnull align 8 dereferenceable(24) %batch_varbinary_cols_34, i64 noundef %conv35) #11
  call void @llvm.memcpy.p0.p0.i64(ptr align 8 %call36, ptr align 8 %col_window, i64 72, i1 false)
  br label %if.end37

if.end37:                                         ; preds = %if.end, %for.body
  br label %for.inc

for.inc:                                          ; preds = %if.end37
  %19 = load i32, ptr %i, align 4
  %inc38 = add i32 %19, 1
  store i32 %inc38, ptr %i, align 4
  br label %for.cond, !llvm.loop !9

for.end:                                          ; preds = %for.cond
  ret void
}