; Function Attrs: mustprogress uwtable
define void @_ZN5arrow7compute15RowTableEncoder22PrepareKeyColumnArraysEllRKSt6vectorINS0_14KeyColumnArrayESaIS3_EE(ptr noundef nonnull readonly align 8 captures(none) dereferenceable(192) %this, i64 noundef %start_row, i64 noundef %num_rows, ptr noundef nonnull readonly align 8 captures(none) dereferenceable(24) %cols_in) local_unnamed_addr #0 align 2 {
entry:
  %col_window = alloca %"class.arrow::compute::KeyColumnArray", align 8
  %_M_finish.i = getelementptr inbounds nuw i8, ptr %cols_in, i64 8
  %0 = load ptr, ptr %_M_finish.i, align 8
  %1 = load ptr, ptr %cols_in, align 8
  %sub.ptr.lhs.cast.i = ptrtoint ptr %0 to i64
  %sub.ptr.rhs.cast.i = ptrtoint ptr %1 to i64
  %sub.ptr.sub.i = sub i64 %sub.ptr.lhs.cast.i, %sub.ptr.rhs.cast.i
  %sub.ptr.div.i = sdiv exact i64 %sub.ptr.sub.i, 72
  %2 = and i64 %sub.ptr.div.i, 4294967295
  %cmp716.not = icmp eq i64 %2, 0
  br i1 %cmp716.not, label %for.end, label %for.body.lr.ph

for.body.lr.ph:                                   ; preds = %entry
  %column_order = getelementptr inbounds nuw i8, ptr %this, i64 48
  %batch_all_cols_12 = getelementptr inbounds nuw i8, ptr %this, i64 120
  %cmp26 = icmp eq i64 %start_row, 0
  %batch_varbinary_cols_base_offsets_31 = getelementptr inbounds nuw i8, ptr %this, i64 168
  %batch_varbinary_cols_34 = getelementptr inbounds nuw i8, ptr %this, i64 144
  %wide.trip.count24 = and i64 %sub.ptr.div.i, 4294967295
  br i1 %cmp26, label %for.body.us, label %for.body

for.body.us:                                      ; preds = %for.body.lr.ph, %for.inc.us
  %indvars.iv21 = phi i64 [ %indvars.iv.next22, %for.inc.us ], [ 0, %for.body.lr.ph ]
  %num_varbinary_visited.018.us = phi i32 [ %num_varbinary_visited.1.us, %for.inc.us ], [ 0, %for.body.lr.ph ]
  %3 = load ptr, ptr %column_order, align 8
  %add.ptr.i.us = getelementptr inbounds nuw i32, ptr %3, i64 %indvars.iv21
  %4 = load i32, ptr %add.ptr.i.us, align 4
  %conv10.us = zext i32 %4 to i64
  %5 = load ptr, ptr %cols_in, align 8
  %add.ptr.i11.us = getelementptr inbounds nuw %"class.arrow::compute::KeyColumnArray", ptr %5, i64 %conv10.us
  call void @_ZNK5arrow7compute14KeyColumnArray5SliceEll(ptr nonnull sret(%"class.arrow::compute::KeyColumnArray") align 8 %col_window, ptr noundef nonnull align 8 dereferenceable(72) %add.ptr.i11.us, i64 noundef 0, i64 noundef %num_rows)
  %6 = load ptr, ptr %batch_all_cols_12, align 8
  %add.ptr.i12.us = getelementptr inbounds nuw %"class.arrow::compute::KeyColumnArray", ptr %6, i64 %indvars.iv21
  call void @llvm.memcpy.p0.p0.i64(ptr noundef nonnull align 8 dereferenceable(72) %add.ptr.i12.us, ptr noundef nonnull align 8 dereferenceable(72) %col_window, i64 72, i1 false)
  %metadata_.i.us = getelementptr inbounds nuw i8, ptr %add.ptr.i11.us, i64 48
  %7 = load i8, ptr %metadata_.i.us, align 4
  %tobool.us = trunc i8 %7 to i1
  br i1 %tobool.us, label %for.inc.us, label %while.end25.us

while.end25.us:                                   ; preds = %for.body.us
  %conv28.us = zext i32 %num_varbinary_visited.018.us to i64
  %8 = load ptr, ptr %batch_varbinary_cols_base_offsets_31, align 8
  %add.ptr.i13.us = getelementptr inbounds nuw i32, ptr %8, i64 %conv28.us
  store i32 0, ptr %add.ptr.i13.us, align 4
  %inc.us = add i32 %num_varbinary_visited.018.us, 1
  %9 = load ptr, ptr %batch_varbinary_cols_34, align 8
  %add.ptr.i15.us = getelementptr inbounds nuw %"class.arrow::compute::KeyColumnArray", ptr %9, i64 %conv28.us
  call void @llvm.memcpy.p0.p0.i64(ptr noundef nonnull align 8 dereferenceable(72) %add.ptr.i15.us, ptr noundef nonnull align 8 dereferenceable(72) %col_window, i64 72, i1 false)
  br label %for.inc.us

for.inc.us:                                       ; preds = %while.end25.us, %for.body.us
  %num_varbinary_visited.1.us = phi i32 [ %num_varbinary_visited.018.us, %for.body.us ], [ %inc.us, %while.end25.us ]
  %indvars.iv.next22 = add nuw nsw i64 %indvars.iv21, 1
  %exitcond25.not = icmp eq i64 %indvars.iv.next22, %wide.trip.count24
  br i1 %exitcond25.not, label %for.end, label %for.body.us, !llvm.loop !4

for.body:                                         ; preds = %for.body.lr.ph, %for.inc
  %indvars.iv = phi i64 [ %indvars.iv.next, %for.inc ], [ 0, %for.body.lr.ph ]
  %num_varbinary_visited.018 = phi i32 [ %num_varbinary_visited.1, %for.inc ], [ 0, %for.body.lr.ph ]
  %10 = load ptr, ptr %column_order, align 8
  %add.ptr.i = getelementptr inbounds nuw i32, ptr %10, i64 %indvars.iv
  %11 = load i32, ptr %add.ptr.i, align 4
  %conv10 = zext i32 %11 to i64
  %12 = load ptr, ptr %cols_in, align 8
  %add.ptr.i11 = getelementptr inbounds nuw %"class.arrow::compute::KeyColumnArray", ptr %12, i64 %conv10
  call void @_ZNK5arrow7compute14KeyColumnArray5SliceEll(ptr nonnull sret(%"class.arrow::compute::KeyColumnArray") align 8 %col_window, ptr noundef nonnull align 8 dereferenceable(72) %add.ptr.i11, i64 noundef %start_row, i64 noundef %num_rows)
  %13 = load ptr, ptr %batch_all_cols_12, align 8
  %add.ptr.i12 = getelementptr inbounds nuw %"class.arrow::compute::KeyColumnArray", ptr %13, i64 %indvars.iv
  call void @llvm.memcpy.p0.p0.i64(ptr noundef nonnull align 8 dereferenceable(72) %add.ptr.i12, ptr noundef nonnull align 8 dereferenceable(72) %col_window, i64 72, i1 false)
  %metadata_.i = getelementptr inbounds nuw i8, ptr %add.ptr.i11, i64 48
  %14 = load i8, ptr %metadata_.i, align 4
  %tobool = trunc i8 %14 to i1
  br i1 %tobool, label %for.inc, label %while.end25

while.end25:                                      ; preds = %for.body
  %arrayidx.i.i = getelementptr inbounds nuw i8, ptr %add.ptr.i11, i64 8
  %15 = load ptr, ptr %arrayidx.i.i, align 8
  %arrayidx = getelementptr inbounds i32, ptr %15, i64 %start_row
  %16 = load i32, ptr %arrayidx, align 4
  %conv32 = zext i32 %num_varbinary_visited.018 to i64
  %17 = load ptr, ptr %batch_varbinary_cols_base_offsets_31, align 8
  %add.ptr.i14 = getelementptr inbounds nuw i32, ptr %17, i64 %conv32
  store i32 %16, ptr %add.ptr.i14, align 4
  %inc = add i32 %num_varbinary_visited.018, 1
  %18 = load ptr, ptr %batch_varbinary_cols_34, align 8
  %add.ptr.i15 = getelementptr inbounds nuw %"class.arrow::compute::KeyColumnArray", ptr %18, i64 %conv32
  call void @llvm.memcpy.p0.p0.i64(ptr noundef nonnull align 8 dereferenceable(72) %add.ptr.i15, ptr noundef nonnull align 8 dereferenceable(72) %col_window, i64 72, i1 false)
  br label %for.inc

for.inc:                                          ; preds = %for.body, %while.end25
  %num_varbinary_visited.1 = phi i32 [ %num_varbinary_visited.018, %for.body ], [ %inc, %while.end25 ]
  %indvars.iv.next = add nuw nsw i64 %indvars.iv, 1
  %exitcond.not = icmp eq i64 %indvars.iv.next, %wide.trip.count24
  br i1 %exitcond.not, label %for.end, label %for.body, !llvm.loop !4

for.end:                                          ; preds = %for.inc, %for.inc.us, %entry
  ret void
}